target datalayout = "e-m:e-p270:32:32-p271:32:32-p272:64:64-i64:64-i128:128-f80:128-n8:16:32:64-S128"
target triple = "x86_64-pc-linux-gnu"

@.str = private unnamed_addr constant [33 x i8] c"n,a=%s,\01host=%s\01auth=Bearer %s\01\01\00", align 1
@.str.1 = private unnamed_addr constant [42 x i8] c"n,a=%s,\01host=%s\01port=%ld\01auth=Bearer %s\01\01\00", align 1
@.str.2 = private unnamed_addr constant [25 x i8] c"user=%s\01auth=Bearer %s\01\01\00", align 1

; Function Attrs: nounwind uwtable
define hidden i32 @Curl_auth_create_oauth_bearer_message(ptr noundef %0, ptr noundef %1, i64 noundef %2, ptr noundef %3, ptr noundef %4) #0 {
  %6 = alloca i32, align 4
  %7 = alloca ptr, align 8
  %8 = alloca ptr, align 8
  %9 = alloca i64, align 8
  %10 = alloca ptr, align 8
  %11 = alloca ptr, align 8
  %12 = alloca ptr, align 8
  %13 = alloca i32, align 4
  store ptr %0, ptr %7, align 8, !tbaa !3
  store ptr %1, ptr %8, align 8, !tbaa !3
  store i64 %2, ptr %9, align 8, !tbaa !8
  store ptr %3, ptr %10, align 8, !tbaa !3
  store ptr %4, ptr %11, align 8, !tbaa !10
  call void @llvm.lifetime.start.p0(i64 8, ptr %12) #4
  %14 = load i64, ptr %9, align 8, !tbaa !8
  %15 = icmp eq i64 %14, 0
  br i1 %15, label %19, label %16

16:                                               ; preds = %5
  %17 = load i64, ptr %9, align 8, !tbaa !8
  %18 = icmp eq i64 %17, 80
  br i1 %18, label %19, label %24

19:                                               ; preds = %16, %5
  %20 = load ptr, ptr %7, align 8, !tbaa !3
  %21 = load ptr, ptr %8, align 8, !tbaa !3
  %22 = load ptr, ptr %10, align 8, !tbaa !3
  %23 = call ptr (ptr, ...) @curl_maprintf(ptr noundef @.str, ptr noundef %20, ptr noundef %21, ptr noundef %22)
  store ptr %23, ptr %12, align 8, !tbaa !3
  br label %30

24:                                               ; preds = %16
  %25 = load ptr, ptr %7, align 8, !tbaa !3
  %26 = load ptr, ptr %8, align 8, !tbaa !3
  %27 = load i64, ptr %9, align 8, !tbaa !8
  %28 = load ptr, ptr %10, align 8, !tbaa !3
  %29 = call ptr (ptr, ...) @curl_maprintf(ptr noundef @.str.1, ptr noundef %25, ptr noundef %26, i64 noundef %27, ptr noundef %28)
  store ptr %29, ptr %12, align 8, !tbaa !3
  br label %30

30:                                               ; preds = %24, %19
  %31 = load ptr, ptr %12, align 8, !tbaa !3
  %32 = icmp ne ptr %31, null
  br i1 %32, label %34, label %33

33:                                               ; preds = %30
  store i32 27, ptr %6, align 4
  store i32 1, ptr %13, align 4
  br label %39

34:                                               ; preds = %30
  %35 = load ptr, ptr %11, align 8, !tbaa !10
  %36 = load ptr, ptr %12, align 8, !tbaa !3
  %37 = load ptr, ptr %12, align 8, !tbaa !3
  %38 = call i64 @strlen(ptr noundef %37) #5
  call void @Curl_bufref_set(ptr noundef %35, ptr noundef %36, i64 noundef %38, ptr noundef @curl_free)
  store i32 0, ptr %6, align 4
  store i32 1, ptr %13, align 4
  br label %39

39:                                               ; preds = %34, %33
  call void @llvm.lifetime.end.p0(i64 8, ptr %12) #4
  %40 = load i32, ptr %6, align 4
  ret i32 %40
}

; Function Attrs: nocallback nofree nosync nounwind willreturn memory(argmem: readwrite)
declare void @llvm.lifetime.start.p0(i64 immarg, ptr captures(none)) #1

declare ptr @curl_maprintf(ptr noundef, ...) #2

declare void @Curl_bufref_set(ptr noundef, ptr noundef, i64 noundef, ptr noundef) #2

; Function Attrs: nounwind willreturn memory(read)
declare i64 @strlen(ptr noundef) #3

declare void @curl_free(ptr noundef) #2

; Function Attrs: nocallback nofree nosync nounwind willreturn memory(argmem: readwrite)
declare void @llvm.lifetime.end.p0(i64 immarg, ptr captures(none)) #1

; Function Attrs: nounwind uwtable
define hidden i32 @Curl_auth_create_xoauth_bearer_message(ptr noundef %0, ptr noundef %1, ptr noundef %2) #0 {
  %4 = alloca i32, align 4
  %5 = alloca ptr, align 8
  %6 = alloca ptr, align 8
  %7 = alloca ptr, align 8
  %8 = alloca ptr, align 8
  %9 = alloca i32, align 4
  store ptr %0, ptr %5, align 8, !tbaa !3
  store ptr %1, ptr %6, align 8, !tbaa !3
  store ptr %2, ptr %7, align 8, !tbaa !10
  call void @llvm.lifetime.start.p0(i64 8, ptr %8) #4
  %10 = load ptr, ptr %5, align 8, !tbaa !3
  %11 = load ptr, ptr %6, align 8, !tbaa !3
  %12 = call ptr (ptr, ...) @curl_maprintf(ptr noundef @.str.2, ptr noundef %10, ptr noundef %11)
  store ptr %12, ptr %8, align 8, !tbaa !3
  %13 = load ptr, ptr %8, align 8, !tbaa !3
  %14 = icmp ne ptr %13, null
  br i1 %14, label %16, label %15

15:                                               ; preds = %3
  store i32 27, ptr %4, align 4
  store i32 1, ptr %9, align 4
  br label %21

16:                                               ; preds = %3
  %17 = load ptr, ptr %7, align 8, !tbaa !10
  %18 = load ptr, ptr %8, align 8, !tbaa !3
  %19 = load ptr, ptr %8, align 8, !tbaa !3
  %20 = call i64 @strlen(ptr noundef %19) #5
  call void @Curl_bufref_set(ptr noundef %17, ptr noundef %18, i64 noundef %20, ptr noundef @curl_free)
  store i32 0, ptr %4, align 4
  store i32 1, ptr %9, align 4
  br label %21

21:                                               ; preds = %16, %15
  call void @llvm.lifetime.end.p0(i64 8, ptr %8) #4
  %22 = load i32, ptr %4, align 4
  ret i32 %22
}


!llvm.module.flags = !{!0, !1, !2}

!0 = !{i32 1, !"wchar_size", i32 4}
!1 = !{i32 8, !"PIC Level", i32 2}
!2 = !{i32 7, !"uwtable", i32 2}
!3 = !{!4, !4, i64 0}
!4 = !{!"p1 omnipotent char", !5, i64 0}
!5 = !{!"any pointer", !6, i64 0}
!6 = !{!"omnipotent char", !7, i64 0}
!7 = !{!"Simple C/C++ TBAA"}
!8 = !{!9, !9, i64 0}
!9 = !{!"long", !6, i64 0}
!10 = !{!11, !11, i64 0}
!11 = !{!"p1 _ZTS6bufref", !5, i64 0}
